
image.elf:     file format elf32-littleriscv


Disassembly of section .text:

40000000 <_entry>:
40000000:	00001697          	auipc	a3,0x1
40000004:	5e068693          	addi	a3,a3,1504 # 400015e0 <first_free>
40000008:	00001617          	auipc	a2,0x1
4000000c:	5f060613          	addi	a2,a2,1520 # 400015f8 <_ebss>
40000010:	00002197          	auipc	gp,0x2
40000014:	dcc18193          	addi	gp,gp,-564 # 40001ddc <_gp>
40000018:	0000c117          	auipc	sp,0xc
4000001c:	fe810113          	addi	sp,sp,-24 # 4000c000 <_heap_end>
40000020:	00001217          	auipc	tp,0x1
40000024:	61720213          	addi	tp,tp,1559 # 40001637 <_ebss+0x3f>
40000028:	fc027213          	andi	tp,tp,-64

4000002c <BSS_CLEAR>:
4000002c:	0006a023          	sw	zero,0(a3)
40000030:	00468693          	addi	a3,a3,4
40000034:	fec6cce3          	blt	a3,a2,4000002c <BSS_CLEAR>
40000038:	00000d97          	auipc	s11,0x0
4000003c:	0c8d8d93          	addi	s11,s11,200 # 40000100 <_isr>
40000040:	f0000d37          	lui	s10,0xf0000
40000044:	01bd2023          	sw	s11,0(s10) # f0000000 <_heap_end+0xafff4000>
40000048:	06d000ef          	jal	ra,400008b4 <irq_enable>
4000004c:	24c010ef          	jal	ra,40001298 <main>
40000050:	e0000d37          	lui	s10,0xe0000
40000054:	00ad2023          	sw	a0,0(s10) # e0000000 <_heap_end+0x9fff4000>

40000058 <L1>:
40000058:	00000063          	beq	zero,zero,40000058 <L1>
	...

400000e0 <_bootsignature>:
400000e0:	6bb1                	c.lui	s7,0xc
400000e2:	b500                	c.fsd	fs0,40(a0)
	...

40000100 <_isr>:
40000100:	00000013          	addi	zero,zero,0
40000104:	fbc10113          	addi	sp,sp,-68
40000108:	00112023          	sw	ra,0(sp)
4000010c:	00512223          	sw	t0,4(sp)
40000110:	00612423          	sw	t1,8(sp)
40000114:	00712623          	sw	t2,12(sp)
40000118:	00a12823          	sw	a0,16(sp)
4000011c:	00b12a23          	sw	a1,20(sp)
40000120:	00c12c23          	sw	a2,24(sp)
40000124:	00d12e23          	sw	a3,28(sp)
40000128:	02e12023          	sw	a4,32(sp)
4000012c:	02f12223          	sw	a5,36(sp)
40000130:	03012423          	sw	a6,40(sp)
40000134:	03112623          	sw	a7,44(sp)
40000138:	03c12823          	sw	t3,48(sp)
4000013c:	03d12a23          	sw	t4,52(sp)
40000140:	03e12c23          	sw	t5,56(sp)
40000144:	03f12e23          	sw	t6,60(sp)
40000148:	f0000d37          	lui	s10,0xf0000
4000014c:	040d0d13          	addi	s10,s10,64 # f0000040 <_heap_end+0xafff4040>
40000150:	000d2d03          	lw	s10,0(s10)
40000154:	ffcd0d13          	addi	s10,s10,-4
40000158:	05a12023          	sw	s10,64(sp)
4000015c:	f00005b7          	lui	a1,0xf0000
40000160:	0105a503          	lw	a0,16(a1) # f0000010 <_heap_end+0xafff4010>
40000164:	0205a603          	lw	a2,32(a1)
40000168:	00c57533          	and	a0,a0,a2
4000016c:	00010593          	addi	a1,sp,0
40000170:	06050263          	beq	a0,zero,400001d4 <_exception>
40000174:	774000ef          	jal	ra,400008e8 <irq_handler>

40000178 <_restore>:
40000178:	01012503          	lw	a0,16(sp)
4000017c:	01412583          	lw	a1,20(sp)

40000180 <_restore_exception>:
40000180:	00012083          	lw	ra,0(sp)
40000184:	00412283          	lw	t0,4(sp)
40000188:	00812303          	lw	t1,8(sp)
4000018c:	00c12383          	lw	t2,12(sp)
40000190:	01812603          	lw	a2,24(sp)
40000194:	01c12683          	lw	a3,28(sp)
40000198:	02012703          	lw	a4,32(sp)
4000019c:	02412783          	lw	a5,36(sp)
400001a0:	02812803          	lw	a6,40(sp)
400001a4:	02c12883          	lw	a7,44(sp)
400001a8:	03012e03          	lw	t3,48(sp)
400001ac:	03412e83          	lw	t4,52(sp)
400001b0:	03812f03          	lw	t5,56(sp)
400001b4:	03c12f83          	lw	t6,60(sp)
400001b8:	04410113          	addi	sp,sp,68
400001bc:	00106d93          	ori	s11,zero,1
400001c0:	f0000d37          	lui	s10,0xf0000
400001c4:	030d0d13          	addi	s10,s10,48 # f0000030 <_heap_end+0xafff4030>
400001c8:	01bd2023          	sw	s11,0(s10)
400001cc:	ffc12d03          	lw	s10,-4(sp)
400001d0:	000d0067          	jalr	zero,0(s10)

400001d4 <_exception>:
400001d4:	00088513          	addi	a0,a7,0
400001d8:	01412583          	lw	a1,20(sp)
400001dc:	01812603          	lw	a2,24(sp)
400001e0:	01c12683          	lw	a3,28(sp)
400001e4:	754000ef          	jal	ra,40000938 <exception_handler>
400001e8:	f99ff06f          	jal	zero,40000180 <_restore_exception>

400001ec <_interrupt_set>:
400001ec:	f00005b7          	lui	a1,0xf0000
400001f0:	03058593          	addi	a1,a1,48 # f0000030 <_heap_end+0xafff4030>
400001f4:	0005a603          	lw	a2,0(a1)
400001f8:	00a5a023          	sw	a0,0(a1)
400001fc:	00060513          	addi	a0,a2,0
40000200:	00008067          	jalr	zero,0(ra)

40000204 <setjmp>:
40000204:	00852023          	sw	s0,0(a0)
40000208:	00952223          	sw	s1,4(a0)
4000020c:	01252423          	sw	s2,8(a0)
40000210:	01352623          	sw	s3,12(a0)
40000214:	01452823          	sw	s4,16(a0)
40000218:	01552a23          	sw	s5,20(a0)
4000021c:	01652c23          	sw	s6,24(a0)
40000220:	01752e23          	sw	s7,28(a0)
40000224:	03852023          	sw	s8,32(a0)
40000228:	03952223          	sw	s9,36(a0)
4000022c:	02452623          	sw	tp,44(a0)
40000230:	02252823          	sw	sp,48(a0)
40000234:	02152a23          	sw	ra,52(a0)
40000238:	00006513          	ori	a0,zero,0
4000023c:	00008067          	jalr	zero,0(ra)

40000240 <longjmp>:
40000240:	00052403          	lw	s0,0(a0)
40000244:	00452483          	lw	s1,4(a0)
40000248:	00852903          	lw	s2,8(a0)
4000024c:	00c52983          	lw	s3,12(a0)
40000250:	01052a03          	lw	s4,16(a0)
40000254:	01452a83          	lw	s5,20(a0)
40000258:	01852b03          	lw	s6,24(a0)
4000025c:	01c52b83          	lw	s7,28(a0)
40000260:	02052c03          	lw	s8,32(a0)
40000264:	02452c83          	lw	s9,36(a0)
40000268:	02c52203          	lw	tp,44(a0)
4000026c:	03052103          	lw	sp,48(a0)
40000270:	03452083          	lw	ra,52(a0)
40000274:	0005e513          	ori	a0,a1,0
40000278:	00008067          	jalr	zero,0(ra)

4000027c <syscall>:
4000027c:	00050893          	addi	a7,a0,0
40000280:	00000073          	ecall
40000284:	00008067          	jalr	zero,0(ra)

40000288 <ucx_hexdump>:
40000288:	fc010113          	addi	sp,sp,-64
4000028c:	02112e23          	sw	ra,60(sp)
40000290:	02812c23          	sw	s0,56(sp)
40000294:	02912a23          	sw	s1,52(sp)
40000298:	03212823          	sw	s2,48(sp)
4000029c:	03312623          	sw	s3,44(sp)
400002a0:	03412423          	sw	s4,40(sp)
400002a4:	03512223          	sw	s5,36(sp)
400002a8:	03612023          	sw	s6,32(sp)
400002ac:	01712e23          	sw	s7,28(sp)
400002b0:	01812c23          	sw	s8,24(sp)
400002b4:	01912a23          	sw	s9,20(sp)
400002b8:	00b12623          	sw	a1,12(sp)
400002bc:	00012423          	sw	zero,8(sp)
400002c0:	12058663          	beq	a1,zero,400003ec <ucx_hexdump+0x164>
400002c4:	ff057413          	andi	s0,a0,-16
400002c8:	01040c13          	addi	s8,s0,16
400002cc:	000c0a13          	addi	s4,s8,0
400002d0:	00900993          	addi	s3,zero,9
400002d4:	ffc00b93          	addi	s7,zero,-4
400002d8:	01000b13          	addi	s6,zero,16
400002dc:	00a00513          	addi	a0,zero,10
400002e0:	144000ef          	jal	ra,40000424 <_putchar>
400002e4:	01c00493          	addi	s1,zero,28
400002e8:	409457b3          	sra	a5,s0,s1
400002ec:	00f7f793          	andi	a5,a5,15
400002f0:	ffc48493          	addi	s1,s1,-4
400002f4:	03078513          	addi	a0,a5,48
400002f8:	00f9d463          	bge	s3,a5,40000300 <ucx_hexdump+0x78>
400002fc:	03778513          	addi	a0,a5,55
40000300:	124000ef          	jal	ra,40000424 <_putchar>
40000304:	ff7492e3          	bne	s1,s7,400002e8 <ucx_hexdump+0x60>
40000308:	02000513          	addi	a0,zero,32
4000030c:	118000ef          	jal	ra,40000424 <_putchar>
40000310:	00000493          	addi	s1,zero,0
40000314:	00700a93          	addi	s5,zero,7
40000318:	009407b3          	add	a5,s0,s1
4000031c:	0007cc83          	lbu	s9,0(a5)
40000320:	00148913          	addi	s2,s1,1
40000324:	004cd713          	srli	a4,s9,0x4
40000328:	03770513          	addi	a0,a4,55
4000032c:	00e9e463          	bltu	s3,a4,40000334 <ucx_hexdump+0xac>
40000330:	03070513          	addi	a0,a4,48
40000334:	0f0000ef          	jal	ra,40000424 <_putchar>
40000338:	00fcf793          	andi	a5,s9,15
4000033c:	03778513          	addi	a0,a5,55
40000340:	00f9e463          	bltu	s3,a5,40000348 <ucx_hexdump+0xc0>
40000344:	03078513          	addi	a0,a5,48
40000348:	0dc000ef          	jal	ra,40000424 <_putchar>
4000034c:	02000513          	addi	a0,zero,32
40000350:	0d4000ef          	jal	ra,40000424 <_putchar>
40000354:	09548463          	beq	s1,s5,400003dc <ucx_hexdump+0x154>
40000358:	01690663          	beq	s2,s6,40000364 <ucx_hexdump+0xdc>
4000035c:	00090493          	addi	s1,s2,0
40000360:	fb9ff06f          	jal	zero,40000318 <ucx_hexdump+0x90>
40000364:	02000513          	addi	a0,zero,32
40000368:	0bc000ef          	jal	ra,40000424 <_putchar>
4000036c:	07c00513          	addi	a0,zero,124
40000370:	0b4000ef          	jal	ra,40000424 <_putchar>
40000374:	05e00493          	addi	s1,zero,94
40000378:	0140006f          	jal	zero,4000038c <ucx_hexdump+0x104>
4000037c:	00070513          	addi	a0,a4,0
40000380:	00140413          	addi	s0,s0,1
40000384:	0a0000ef          	jal	ra,40000424 <_putchar>
40000388:	028a0263          	beq	s4,s0,400003ac <ucx_hexdump+0x124>
4000038c:	00044703          	lbu	a4,0(s0)
40000390:	02e00513          	addi	a0,zero,46
40000394:	fe070793          	addi	a5,a4,-32
40000398:	0ff7f793          	andi	a5,a5,255
4000039c:	fef4f0e3          	bgeu	s1,a5,4000037c <ucx_hexdump+0xf4>
400003a0:	00140413          	addi	s0,s0,1
400003a4:	080000ef          	jal	ra,40000424 <_putchar>
400003a8:	fe8a12e3          	bne	s4,s0,4000038c <ucx_hexdump+0x104>
400003ac:	00812783          	lw	a5,8(sp)
400003b0:	07c00513          	addi	a0,zero,124
400003b4:	010a0a13          	addi	s4,s4,16
400003b8:	01078793          	addi	a5,a5,16
400003bc:	00078493          	addi	s1,a5,0
400003c0:	00f12423          	sw	a5,8(sp)
400003c4:	060000ef          	jal	ra,40000424 <_putchar>
400003c8:	00c12703          	lw	a4,12(sp)
400003cc:	000c0413          	addi	s0,s8,0
400003d0:	00e4fe63          	bgeu	s1,a4,400003ec <ucx_hexdump+0x164>
400003d4:	010c0c13          	addi	s8,s8,16
400003d8:	f05ff06f          	jal	zero,400002dc <ucx_hexdump+0x54>
400003dc:	02000513          	addi	a0,zero,32
400003e0:	044000ef          	jal	ra,40000424 <_putchar>
400003e4:	00090493          	addi	s1,s2,0
400003e8:	f31ff06f          	jal	zero,40000318 <ucx_hexdump+0x90>
400003ec:	03c12083          	lw	ra,60(sp)
400003f0:	03812403          	lw	s0,56(sp)
400003f4:	03412483          	lw	s1,52(sp)
400003f8:	03012903          	lw	s2,48(sp)
400003fc:	02c12983          	lw	s3,44(sp)
40000400:	02812a03          	lw	s4,40(sp)
40000404:	02412a83          	lw	s5,36(sp)
40000408:	02012b03          	lw	s6,32(sp)
4000040c:	01c12b83          	lw	s7,28(sp)
40000410:	01812c03          	lw	s8,24(sp)
40000414:	01412c83          	lw	s9,20(sp)
40000418:	00000513          	addi	a0,zero,0
4000041c:	04010113          	addi	sp,sp,64
40000420:	00008067          	jalr	zero,0(ra)

40000424 <_putchar>:
40000424:	e1030737          	lui	a4,0xe1030
40000428:	40072783          	lw	a5,1024(a4) # e1030400 <_heap_end+0xa1024400>
4000042c:	0027f793          	andi	a5,a5,2
40000430:	fe079ce3          	bne	a5,zero,40000428 <_putchar+0x4>
40000434:	e10347b7          	lui	a5,0xe1034
40000438:	00a7a023          	sw	a0,0(a5) # e1034000 <_heap_end+0xa1028000>
4000043c:	00008067          	jalr	zero,0(ra)

40000440 <__udivsi3>:
40000440:	00050713          	addi	a4,a0,0
40000444:	04a5fc63          	bgeu	a1,a0,4000049c <__udivsi3+0x5c>
40000448:	0405ca63          	blt	a1,zero,4000049c <__udivsi3+0x5c>
4000044c:	02000513          	addi	a0,zero,32
40000450:	00100793          	addi	a5,zero,1
40000454:	00c0006f          	jal	zero,40000460 <__udivsi3+0x20>
40000458:	04050063          	beq	a0,zero,40000498 <__udivsi3+0x58>
4000045c:	0005cc63          	blt	a1,zero,40000474 <__udivsi3+0x34>
40000460:	00159593          	slli	a1,a1,0x1
40000464:	fff50513          	addi	a0,a0,-1
40000468:	00179793          	slli	a5,a5,0x1
4000046c:	fee5e6e3          	bltu	a1,a4,40000458 <__udivsi3+0x18>
40000470:	02078263          	beq	a5,zero,40000494 <__udivsi3+0x54>
40000474:	00000513          	addi	a0,zero,0
40000478:	00b76663          	bltu	a4,a1,40000484 <__udivsi3+0x44>
4000047c:	40b70733          	sub	a4,a4,a1
40000480:	00f56533          	or	a0,a0,a5
40000484:	0017d793          	srli	a5,a5,0x1
40000488:	0015d593          	srli	a1,a1,0x1
4000048c:	fe0796e3          	bne	a5,zero,40000478 <__udivsi3+0x38>
40000490:	00008067          	jalr	zero,0(ra)
40000494:	00000513          	addi	a0,zero,0
40000498:	00008067          	jalr	zero,0(ra)
4000049c:	00100793          	addi	a5,zero,1
400004a0:	00000513          	addi	a0,zero,0
400004a4:	fd5ff06f          	jal	zero,40000478 <__udivsi3+0x38>

400004a8 <__umodsi3>:
400004a8:	04a5f663          	bgeu	a1,a0,400004f4 <__umodsi3+0x4c>
400004ac:	0405c463          	blt	a1,zero,400004f4 <__umodsi3+0x4c>
400004b0:	02000713          	addi	a4,zero,32
400004b4:	00100793          	addi	a5,zero,1
400004b8:	00c0006f          	jal	zero,400004c4 <__umodsi3+0x1c>
400004bc:	02070863          	beq	a4,zero,400004ec <__umodsi3+0x44>
400004c0:	0005cc63          	blt	a1,zero,400004d8 <__umodsi3+0x30>
400004c4:	00159593          	slli	a1,a1,0x1
400004c8:	fff70713          	addi	a4,a4,-1
400004cc:	00179793          	slli	a5,a5,0x1
400004d0:	fea5e6e3          	bltu	a1,a0,400004bc <__umodsi3+0x14>
400004d4:	00078e63          	beq	a5,zero,400004f0 <__umodsi3+0x48>
400004d8:	0017d793          	srli	a5,a5,0x1
400004dc:	00b56463          	bltu	a0,a1,400004e4 <__umodsi3+0x3c>
400004e0:	40b50533          	sub	a0,a0,a1
400004e4:	0015d593          	srli	a1,a1,0x1
400004e8:	fe0798e3          	bne	a5,zero,400004d8 <__umodsi3+0x30>
400004ec:	00008067          	jalr	zero,0(ra)
400004f0:	00008067          	jalr	zero,0(ra)
400004f4:	00100793          	addi	a5,zero,1
400004f8:	fe1ff06f          	jal	zero,400004d8 <__umodsi3+0x30>

400004fc <timer1ctc_handler>:
400004fc:	2d90006f          	jal	zero,40000fd4 <krnl_dispatcher>

40000500 <_hardware_init>:
40000500:	ff010113          	addi	sp,sp,-16
40000504:	00000513          	addi	a0,zero,0
40000508:	00112623          	sw	ra,12(sp)
4000050c:	ce1ff0ef          	jal	ra,400001ec <_interrupt_set>
40000510:	e10247b7          	lui	a5,0xe1024
40000514:	00200713          	addi	a4,zero,2
40000518:	40e7a823          	sw	a4,1040(a5) # e1024410 <_heap_end+0xa1018410>
4000051c:	80000737          	lui	a4,0x80000
40000520:	40e7a023          	sw	a4,1024(a5)
40000524:	00c12083          	lw	ra,12(sp)
40000528:	00004737          	lui	a4,0x4
4000052c:	4007a023          	sw	zero,1024(a5)
40000530:	d0970713          	addi	a4,a4,-759 # 3d09 <_stack_size-0x2f7>
40000534:	42e7a023          	sw	a4,1056(a5)
40000538:	01010113          	addi	sp,sp,16
4000053c:	00008067          	jalr	zero,0(ra)

40000540 <_timer_enable>:
40000540:	e1021737          	lui	a4,0xe1021
40000544:	c0072783          	lw	a5,-1024(a4) # e1020c00 <_heap_end+0xa1014c00>
40000548:	0047e793          	ori	a5,a5,4
4000054c:	c0f72023          	sw	a5,-1024(a4)
40000550:	00008067          	jalr	zero,0(ra)

40000554 <_interrupt_tick>:
40000554:	00100513          	addi	a0,zero,1
40000558:	c95ff06f          	jal	zero,400001ec <_interrupt_set>

4000055c <task2>:
4000055c:	ff010113          	addi	sp,sp,-16
40000560:	00812423          	sw	s0,8(sp)
40000564:	00049437          	lui	s0,0x49
40000568:	00912223          	sw	s1,4(sp)
4000056c:	00112623          	sw	ra,12(sp)
40000570:	3e040413          	addi	s0,s0,992 # 493e0 <_heap_size+0x3e9d8>
40000574:	389000ef          	jal	ra,400010fc <ucx_task_init>
40000578:	400014b7          	lui	s1,0x40001
4000057c:	509000ef          	jal	ra,40001284 <ucx_task_id>
40000580:	00050593          	addi	a1,a0,0
40000584:	00040613          	addi	a2,s0,0
40000588:	34448513          	addi	a0,s1,836 # 40001344 <_etext>
4000058c:	00140413          	addi	s0,s0,1
40000590:	7d4000ef          	jal	ra,40000d64 <ucx_printf>
40000594:	fe9ff06f          	jal	zero,4000057c <task2+0x20>

40000598 <task1>:
40000598:	ff010113          	addi	sp,sp,-16
4000059c:	00812423          	sw	s0,8(sp)
400005a0:	00031437          	lui	s0,0x31
400005a4:	00912223          	sw	s1,4(sp)
400005a8:	00112623          	sw	ra,12(sp)
400005ac:	d4040413          	addi	s0,s0,-704 # 30d40 <_heap_size+0x26338>
400005b0:	34d000ef          	jal	ra,400010fc <ucx_task_init>
400005b4:	400014b7          	lui	s1,0x40001
400005b8:	4cd000ef          	jal	ra,40001284 <ucx_task_id>
400005bc:	00050593          	addi	a1,a0,0
400005c0:	00040613          	addi	a2,s0,0
400005c4:	34448513          	addi	a0,s1,836 # 40001344 <_etext>
400005c8:	00140413          	addi	s0,s0,1
400005cc:	798000ef          	jal	ra,40000d64 <ucx_printf>
400005d0:	fe9ff06f          	jal	zero,400005b8 <task1+0x20>

400005d4 <task0>:
400005d4:	ff010113          	addi	sp,sp,-16
400005d8:	00812423          	sw	s0,8(sp)
400005dc:	00018437          	lui	s0,0x18
400005e0:	00912223          	sw	s1,4(sp)
400005e4:	00112623          	sw	ra,12(sp)
400005e8:	6a040413          	addi	s0,s0,1696 # 186a0 <_heap_size+0xdc98>
400005ec:	311000ef          	jal	ra,400010fc <ucx_task_init>
400005f0:	400014b7          	lui	s1,0x40001
400005f4:	491000ef          	jal	ra,40001284 <ucx_task_id>
400005f8:	00050593          	addi	a1,a0,0
400005fc:	00040613          	addi	a2,s0,0
40000600:	34448513          	addi	a0,s1,836 # 40001344 <_etext>
40000604:	00140413          	addi	s0,s0,1
40000608:	75c000ef          	jal	ra,40000d64 <ucx_printf>
4000060c:	fe9ff06f          	jal	zero,400005f4 <task0+0x20>

40000610 <app_main>:
40000610:	ff010113          	addi	sp,sp,-16
40000614:	00812423          	sw	s0,8(sp)
40000618:	40000537          	lui	a0,0x40000
4000061c:	00001437          	lui	s0,0x1
40000620:	80040593          	addi	a1,s0,-2048 # 800 <_stack_size-0x3800>
40000624:	5d450513          	addi	a0,a0,1492 # 400005d4 <task0>
40000628:	00112623          	sw	ra,12(sp)
4000062c:	209000ef          	jal	ra,40001034 <ucx_task_add>
40000630:	40000537          	lui	a0,0x40000
40000634:	80040593          	addi	a1,s0,-2048
40000638:	59850513          	addi	a0,a0,1432 # 40000598 <task1>
4000063c:	1f9000ef          	jal	ra,40001034 <ucx_task_add>
40000640:	40000537          	lui	a0,0x40000
40000644:	80040593          	addi	a1,s0,-2048
40000648:	55c50513          	addi	a0,a0,1372 # 4000055c <task2>
4000064c:	1e9000ef          	jal	ra,40001034 <ucx_task_add>
40000650:	000045b7          	lui	a1,0x4
40000654:	f3f58593          	addi	a1,a1,-193 # 3f3f <_stack_size-0xc1>
40000658:	00200513          	addi	a0,zero,2
4000065c:	3b1000ef          	jal	ra,4000120c <ucx_task_priority>
40000660:	00c12083          	lw	ra,12(sp)
40000664:	00812403          	lw	s0,8(sp)
40000668:	00100513          	addi	a0,zero,1
4000066c:	01010113          	addi	sp,sp,16
40000670:	00008067          	jalr	zero,0(ra)

40000674 <dummy_handler>:
40000674:	40001537          	lui	a0,0x40001
40000678:	35450513          	addi	a0,a0,852 # 40001354 <_etext+0x10>
4000067c:	6e80006f          	jal	zero,40000d64 <ucx_printf>

40000680 <irq0_handler>:
40000680:	e10007b7          	lui	a5,0xe1000
40000684:	fc010113          	addi	sp,sp,-64
40000688:	4007a783          	lw	a5,1024(a5) # e1000400 <_heap_end+0xa0ff4400>
4000068c:	03412423          	sw	s4,40(sp)
40000690:	40001a37          	lui	s4,0x40001
40000694:	384a0793          	addi	a5,s4,900 # 40001384 <_etext+0x40>
40000698:	02912a23          	sw	s1,52(sp)
4000069c:	03212823          	sw	s2,48(sp)
400006a0:	03312623          	sw	s3,44(sp)
400006a4:	02112e23          	sw	ra,60(sp)
400006a8:	02812c23          	sw	s0,56(sp)
400006ac:	03512223          	sw	s5,36(sp)
400006b0:	03612023          	sw	s6,32(sp)
400006b4:	01712e23          	sw	s7,28(sp)
400006b8:	01812c23          	sw	s8,24(sp)
400006bc:	01912a23          	sw	s9,20(sp)
400006c0:	02000913          	addi	s2,zero,32
400006c4:	00100493          	addi	s1,zero,1
400006c8:	e10009b7          	lui	s3,0xe1000
400006cc:	00f12623          	sw	a5,12(sp)
400006d0:	4009a783          	lw	a5,1024(s3) # e1000400 <_heap_end+0xa0ff4400>
400006d4:	00149493          	slli	s1,s1,0x1
400006d8:	04078663          	beq	a5,zero,40000724 <irq0_handler+0xa4>
400006dc:	fff90913          	addi	s2,s2,-1
400006e0:	04090263          	beq	s2,zero,40000724 <irq0_handler+0xa4>
400006e4:	4009a783          	lw	a5,1024(s3)
400006e8:	02000713          	addi	a4,zero,32
400006ec:	0097f7b3          	and	a5,a5,s1
400006f0:	00f76c63          	bltu	a4,a5,40000708 <irq0_handler+0x88>
400006f4:	00c12703          	lw	a4,12(sp)
400006f8:	00279793          	slli	a5,a5,0x2
400006fc:	00e787b3          	add	a5,a5,a4
40000700:	0007a783          	lw	a5,0(a5)
40000704:	00078067          	jalr	zero,0(a5)
40000708:	4009a583          	lw	a1,1024(s3)
4000070c:	400017b7          	lui	a5,0x40001
40000710:	35c78513          	addi	a0,a5,860 # 4000135c <_etext+0x18>
40000714:	650000ef          	jal	ra,40000d64 <ucx_printf>
40000718:	4009a783          	lw	a5,1024(s3)
4000071c:	00149493          	slli	s1,s1,0x1
40000720:	fa079ee3          	bne	a5,zero,400006dc <irq0_handler+0x5c>
40000724:	03c12083          	lw	ra,60(sp)
40000728:	03812403          	lw	s0,56(sp)
4000072c:	03412483          	lw	s1,52(sp)
40000730:	03012903          	lw	s2,48(sp)
40000734:	02c12983          	lw	s3,44(sp)
40000738:	02812a03          	lw	s4,40(sp)
4000073c:	02412a83          	lw	s5,36(sp)
40000740:	02012b03          	lw	s6,32(sp)
40000744:	01c12b83          	lw	s7,28(sp)
40000748:	01812c03          	lw	s8,24(sp)
4000074c:	01412c83          	lw	s9,20(sp)
40000750:	04010113          	addi	sp,sp,64
40000754:	00008067          	jalr	zero,0(ra)
40000758:	e10217b7          	lui	a5,0xe1021
4000075c:	e1020737          	lui	a4,0xe1020
40000760:	40072403          	lw	s0,1024(a4) # e1020400 <_heap_end+0xa1014400>
40000764:	8007a683          	lw	a3,-2048(a5) # e1020800 <_heap_end+0xa1014800>
40000768:	c007a783          	lw	a5,-1024(a5)
4000076c:	40001737          	lui	a4,0x40001
40000770:	00d44433          	xor	s0,s0,a3
40000774:	59c70b13          	addi	s6,a4,1436 # 4000159c <timer_vector>
40000778:	00f47433          	and	s0,s0,a5
4000077c:	00000c93          	addi	s9,zero,0
40000780:	e1021ab7          	lui	s5,0xe1021
40000784:	00100c13          	addi	s8,zero,1
40000788:	00147793          	andi	a5,s0,1
4000078c:	00078e63          	beq	a5,zero,400007a8 <irq0_handler+0x128>
40000790:	800aa583          	lw	a1,-2048(s5) # e1020800 <_heap_end+0xa1014800>
40000794:	000b2603          	lw	a2,0(s6)
40000798:	019c17b3          	sll	a5,s8,s9
4000079c:	00b7c7b3          	xor	a5,a5,a1
400007a0:	80faa023          	sw	a5,-2048(s5)
400007a4:	000600e7          	jalr	ra,0(a2)
400007a8:	00145413          	srli	s0,s0,0x1
400007ac:	001c8c93          	addi	s9,s9,1
400007b0:	004b0b13          	addi	s6,s6,4
400007b4:	fc041ae3          	bne	s0,zero,40000788 <irq0_handler+0x108>
400007b8:	f19ff06f          	jal	zero,400006d0 <irq0_handler+0x50>
400007bc:	e10117b7          	lui	a5,0xe1011
400007c0:	e1010737          	lui	a4,0xe1010
400007c4:	40072403          	lw	s0,1024(a4) # e1010400 <_heap_end+0xa1004400>
400007c8:	8007a703          	lw	a4,-2048(a5) # e1010800 <_heap_end+0xa1004800>
400007cc:	c007a783          	lw	a5,-1024(a5)
400007d0:	400016b7          	lui	a3,0x40001
400007d4:	00e44433          	xor	s0,s0,a4
400007d8:	56c68a13          	addi	s4,a3,1388 # 4000156c <gpio_vector>
400007dc:	00f47433          	and	s0,s0,a5
400007e0:	00000c13          	addi	s8,zero,0
400007e4:	00200b93          	addi	s7,zero,2
400007e8:	e1015b37          	lui	s6,0xe1015
400007ec:	00300c93          	addi	s9,zero,3
400007f0:	e1014ab7          	lui	s5,0xe1014
400007f4:	03c0006f          	jal	zero,40000830 <irq0_handler+0x1b0>
400007f8:	420aa783          	lw	a5,1056(s5) # e1014420 <_heap_end+0xa1008420>
400007fc:	430aa883          	lw	a7,1072(s5)
40000800:	440aa803          	lw	a6,1088(s5)
40000804:	430aa503          	lw	a0,1072(s5)
40000808:	0117c7b3          	xor	a5,a5,a7
4000080c:	0107f7b3          	and	a5,a5,a6
40000810:	00a7c7b3          	xor	a5,a5,a0
40000814:	42faa823          	sw	a5,1072(s5)
40000818:	000a2783          	lw	a5,0(s4)
4000081c:	000780e7          	jalr	ra,0(a5)
40000820:	00145413          	srli	s0,s0,0x1
40000824:	001c0c13          	addi	s8,s8,1
40000828:	004a0a13          	addi	s4,s4,4
4000082c:	ea0402e3          	beq	s0,zero,400006d0 <irq0_handler+0x50>
40000830:	00147793          	andi	a5,s0,1
40000834:	fe0786e3          	beq	a5,zero,40000820 <irq0_handler+0x1a0>
40000838:	057c0c63          	beq	s8,s7,40000890 <irq0_handler+0x210>
4000083c:	038be663          	bltu	s7,s8,40000868 <irq0_handler+0x1e8>
40000840:	fa0c1ce3          	bne	s8,zero,400007f8 <irq0_handler+0x178>
40000844:	020aa783          	lw	a5,32(s5)
40000848:	030aa883          	lw	a7,48(s5)
4000084c:	040aa803          	lw	a6,64(s5)
40000850:	030aa503          	lw	a0,48(s5)
40000854:	0117c7b3          	xor	a5,a5,a7
40000858:	0107f7b3          	and	a5,a5,a6
4000085c:	00a7c7b3          	xor	a5,a5,a0
40000860:	02faa823          	sw	a5,48(s5)
40000864:	fb5ff06f          	jal	zero,40000818 <irq0_handler+0x198>
40000868:	fb9c18e3          	bne	s8,s9,40000818 <irq0_handler+0x198>
4000086c:	c20b2783          	lw	a5,-992(s6) # e1014c20 <_heap_end+0xa1008c20>
40000870:	c30b2883          	lw	a7,-976(s6)
40000874:	c40b2803          	lw	a6,-960(s6)
40000878:	c30b2503          	lw	a0,-976(s6)
4000087c:	0117c7b3          	xor	a5,a5,a7
40000880:	0107f7b3          	and	a5,a5,a6
40000884:	00a7c7b3          	xor	a5,a5,a0
40000888:	c2fb2823          	sw	a5,-976(s6)
4000088c:	f8dff06f          	jal	zero,40000818 <irq0_handler+0x198>
40000890:	820b2783          	lw	a5,-2016(s6)
40000894:	830b2883          	lw	a7,-2000(s6)
40000898:	840b2803          	lw	a6,-1984(s6)
4000089c:	830b2503          	lw	a0,-2000(s6)
400008a0:	0117c7b3          	xor	a5,a5,a7
400008a4:	0107f7b3          	and	a5,a5,a6
400008a8:	00a7c7b3          	xor	a5,a5,a0
400008ac:	82fb2823          	sw	a5,-2000(s6)
400008b0:	f69ff06f          	jal	zero,40000818 <irq0_handler+0x198>

400008b4 <irq_enable>:
400008b4:	e10347b7          	lui	a5,0xe1034
400008b8:	1b200713          	addi	a4,zero,434
400008bc:	00e7a823          	sw	a4,16(a5) # e1034010 <_heap_end+0xa1028010>
400008c0:	0007a023          	sw	zero,0(a5)
400008c4:	e1004637          	lui	a2,0xe1004
400008c8:	00062783          	lw	a5,0(a2) # e1004000 <_heap_end+0xa0ff8000>
400008cc:	f0000737          	lui	a4,0xf0000
400008d0:	00100693          	addi	a3,zero,1
400008d4:	1507e793          	ori	a5,a5,336
400008d8:	00f62023          	sw	a5,0(a2)
400008dc:	02d72023          	sw	a3,32(a4) # f0000020 <_heap_end+0xafff4020>
400008e0:	02d72823          	sw	a3,48(a4)
400008e4:	00008067          	jalr	zero,0(ra)

400008e8 <irq_handler>:
400008e8:	ff010113          	addi	sp,sp,-16
400008ec:	00912223          	sw	s1,4(sp)
400008f0:	400014b7          	lui	s1,0x40001
400008f4:	00812423          	sw	s0,8(sp)
400008f8:	00112623          	sw	ra,12(sp)
400008fc:	00050413          	addi	s0,a0,0
40000900:	57c48493          	addi	s1,s1,1404 # 4000157c <irq_vector>
40000904:	00147793          	andi	a5,s0,1
40000908:	00145413          	srli	s0,s0,0x1
4000090c:	00078863          	beq	a5,zero,4000091c <irq_handler+0x34>
40000910:	0004a783          	lw	a5,0(s1)
40000914:	00078463          	beq	a5,zero,4000091c <irq_handler+0x34>
40000918:	000780e7          	jalr	ra,0(a5)
4000091c:	00448493          	addi	s1,s1,4
40000920:	fe0412e3          	bne	s0,zero,40000904 <irq_handler+0x1c>
40000924:	00c12083          	lw	ra,12(sp)
40000928:	00812403          	lw	s0,8(sp)
4000092c:	00412483          	lw	s1,4(sp)
40000930:	01010113          	addi	sp,sp,16
40000934:	00008067          	jalr	zero,0(ra)

40000938 <exception_handler>:
40000938:	00068713          	addi	a4,a3,0
4000093c:	00060693          	addi	a3,a2,0
40000940:	00058613          	addi	a2,a1,0
40000944:	00050593          	addi	a1,a0,0
40000948:	40001537          	lui	a0,0x40001
4000094c:	ff010113          	addi	sp,sp,-16
40000950:	40850513          	addi	a0,a0,1032 # 40001408 <_etext+0xc4>
40000954:	00112623          	sw	ra,12(sp)
40000958:	40c000ef          	jal	ra,40000d64 <ucx_printf>
4000095c:	00c12083          	lw	ra,12(sp)
40000960:	fff00513          	addi	a0,zero,-1
40000964:	01010113          	addi	sp,sp,16
40000968:	00008067          	jalr	zero,0(ra)

4000096c <ucx_vsprintf>:
4000096c:	fb010113          	addi	sp,sp,-80
40000970:	04812423          	sw	s0,72(sp)
40000974:	04112623          	sw	ra,76(sp)
40000978:	04912223          	sw	s1,68(sp)
4000097c:	05212023          	sw	s2,64(sp)
40000980:	03312e23          	sw	s3,60(sp)
40000984:	03412c23          	sw	s4,56(sp)
40000988:	03512a23          	sw	s5,52(sp)
4000098c:	03612823          	sw	s6,48(sp)
40000990:	03712623          	sw	s7,44(sp)
40000994:	03812423          	sw	s8,40(sp)
40000998:	03912223          	sw	s9,36(sp)
4000099c:	0005c783          	lbu	a5,0(a1)
400009a0:	00050413          	addi	s0,a0,0
400009a4:	0a078063          	beq	a5,zero,40000a44 <ucx_vsprintf+0xd8>
400009a8:	40001a37          	lui	s4,0x40001
400009ac:	450a0713          	addi	a4,s4,1104 # 40001450 <_etext+0x10c>
400009b0:	400019b7          	lui	s3,0x40001
400009b4:	00e12623          	sw	a4,12(sp)
400009b8:	43c98713          	addi	a4,s3,1084 # 4000143c <_etext+0xf8>
400009bc:	00058b93          	addi	s7,a1,0
400009c0:	00060913          	addi	s2,a2,0
400009c4:	00e12423          	sw	a4,8(sp)
400009c8:	01010493          	addi	s1,sp,16
400009cc:	02500713          	addi	a4,zero,37
400009d0:	04e79863          	bne	a5,a4,40000a20 <ucx_vsprintf+0xb4>
400009d4:	001bc703          	lbu	a4,1(s7) # c001 <_heap_size+0x15f9>
400009d8:	03000793          	addi	a5,zero,48
400009dc:	2af70263          	beq	a4,a5,40000c80 <ucx_vsprintf+0x314>
400009e0:	fd070793          	addi	a5,a4,-48
400009e4:	0ff7f793          	andi	a5,a5,255
400009e8:	00900613          	addi	a2,zero,9
400009ec:	001b8b93          	addi	s7,s7,1
400009f0:	02000993          	addi	s3,zero,32
400009f4:	fff00c13          	addi	s8,zero,-1
400009f8:	2af67463          	bgeu	a2,a5,40000ca0 <ucx_vsprintf+0x334>
400009fc:	fa870713          	addi	a4,a4,-88
40000a00:	0ff77713          	andi	a4,a4,255
40000a04:	02000793          	addi	a5,zero,32
40000a08:	02e7e863          	bltu	a5,a4,40000a38 <ucx_vsprintf+0xcc>
40000a0c:	00c12783          	lw	a5,12(sp)
40000a10:	00271713          	slli	a4,a4,0x2
40000a14:	00f70733          	add	a4,a4,a5
40000a18:	00072783          	lw	a5,0(a4)
40000a1c:	00078067          	jalr	zero,0(a5)
40000a20:	2a040863          	beq	s0,zero,40000cd0 <ucx_vsprintf+0x364>
40000a24:	00042703          	lw	a4,0(s0)
40000a28:	00f70023          	sb	a5,0(a4)
40000a2c:	00042783          	lw	a5,0(s0)
40000a30:	00178793          	addi	a5,a5,1
40000a34:	00f42023          	sw	a5,0(s0)
40000a38:	001bc783          	lbu	a5,1(s7)
40000a3c:	001b8b93          	addi	s7,s7,1
40000a40:	f80796e3          	bne	a5,zero,400009cc <ucx_vsprintf+0x60>
40000a44:	00040c63          	beq	s0,zero,40000a5c <ucx_vsprintf+0xf0>
40000a48:	00042783          	lw	a5,0(s0)
40000a4c:	00078023          	sb	zero,0(a5)
40000a50:	00042783          	lw	a5,0(s0)
40000a54:	00178793          	addi	a5,a5,1
40000a58:	00f42023          	sw	a5,0(s0)
40000a5c:	04c12083          	lw	ra,76(sp)
40000a60:	04812403          	lw	s0,72(sp)
40000a64:	04412483          	lw	s1,68(sp)
40000a68:	04012903          	lw	s2,64(sp)
40000a6c:	03c12983          	lw	s3,60(sp)
40000a70:	03812a03          	lw	s4,56(sp)
40000a74:	03412a83          	lw	s5,52(sp)
40000a78:	03012b03          	lw	s6,48(sp)
40000a7c:	02c12b83          	lw	s7,44(sp)
40000a80:	02812c03          	lw	s8,40(sp)
40000a84:	02412c83          	lw	s9,36(sp)
40000a88:	00000513          	addi	a0,zero,0
40000a8c:	05010113          	addi	sp,sp,80
40000a90:	00008067          	jalr	zero,0(ra)
40000a94:	00092703          	lw	a4,0(s2)
40000a98:	01000593          	addi	a1,zero,16
40000a9c:	00490913          	addi	s2,s2,4
40000aa0:	08071e63          	bne	a4,zero,40000b3c <ucx_vsprintf+0x1d0>
40000aa4:	03000793          	addi	a5,zero,48
40000aa8:	00f10823          	sb	a5,16(sp)
40000aac:	03000a93          	addi	s5,zero,48
40000ab0:	00100a13          	addi	s4,zero,1
40000ab4:	414c0c33          	sub	s8,s8,s4
40000ab8:	fffc0c93          	addi	s9,s8,-1
40000abc:	fff00a13          	addi	s4,zero,-1
40000ac0:	03805263          	bge	zero,s8,40000ae4 <ucx_vsprintf+0x178>
40000ac4:	1a040063          	beq	s0,zero,40000c64 <ucx_vsprintf+0x2f8>
40000ac8:	00042783          	lw	a5,0(s0)
40000acc:	01378023          	sb	s3,0(a5)
40000ad0:	00042783          	lw	a5,0(s0)
40000ad4:	00178793          	addi	a5,a5,1
40000ad8:	00f42023          	sw	a5,0(s0)
40000adc:	fffc8c93          	addi	s9,s9,-1
40000ae0:	ff4c92e3          	bne	s9,s4,40000ac4 <ucx_vsprintf+0x158>
40000ae4:	00e48b33          	add	s6,s1,a4
40000ae8:	02040863          	beq	s0,zero,40000b18 <ucx_vsprintf+0x1ac>
40000aec:	00042783          	lw	a5,0(s0)
40000af0:	01578023          	sb	s5,0(a5)
40000af4:	00042783          	lw	a5,0(s0)
40000af8:	00178793          	addi	a5,a5,1
40000afc:	00f42023          	sw	a5,0(s0)
40000b00:	409b07b3          	sub	a5,s6,s1
40000b04:	fffb0693          	addi	a3,s6,-1
40000b08:	f2f058e3          	bge	zero,a5,40000a38 <ucx_vsprintf+0xcc>
40000b0c:	fffb4a83          	lbu	s5,-1(s6)
40000b10:	00068b13          	addi	s6,a3,0
40000b14:	fc041ce3          	bne	s0,zero,40000aec <ucx_vsprintf+0x180>
40000b18:	fe0a84e3          	beq	s5,zero,40000b00 <ucx_vsprintf+0x194>
40000b1c:	000a8513          	addi	a0,s5,0
40000b20:	905ff0ef          	jal	ra,40000424 <_putchar>
40000b24:	fddff06f          	jal	zero,40000b00 <ucx_vsprintf+0x194>
40000b28:	00092703          	lw	a4,0(s2)
40000b2c:	00490913          	addi	s2,s2,4
40000b30:	1a074c63          	blt	a4,zero,40000ce8 <ucx_vsprintf+0x37c>
40000b34:	00a00593          	addi	a1,zero,10
40000b38:	f60706e3          	beq	a4,zero,40000aa4 <ucx_vsprintf+0x138>
40000b3c:	00058b13          	addi	s6,a1,0
40000b40:	00070c93          	addi	s9,a4,0
40000b44:	00000a13          	addi	s4,zero,0
40000b48:	000b0593          	addi	a1,s6,0
40000b4c:	000c8513          	addi	a0,s9,0
40000b50:	8f1ff0ef          	jal	ra,40000440 <__udivsi3>
40000b54:	00050713          	addi	a4,a0,0
40000b58:	000b0593          	addi	a1,s6,0
40000b5c:	000c8513          	addi	a0,s9,0
40000b60:	01912223          	sw	s9,4(sp)
40000b64:	00070c93          	addi	s9,a4,0
40000b68:	941ff0ef          	jal	ra,400004a8 <__umodsi3>
40000b6c:	00812783          	lw	a5,8(sp)
40000b70:	000a0713          	addi	a4,s4,0
40000b74:	00412603          	lw	a2,4(sp)
40000b78:	00a78533          	add	a0,a5,a0
40000b7c:	00054a83          	lbu	s5,0(a0)
40000b80:	001a0a13          	addi	s4,s4,1
40000b84:	01448533          	add	a0,s1,s4
40000b88:	ff550fa3          	sb	s5,-1(a0)
40000b8c:	fb667ee3          	bgeu	a2,s6,40000b48 <ucx_vsprintf+0x1dc>
40000b90:	f25ff06f          	jal	zero,40000ab4 <ucx_vsprintf+0x148>
40000b94:	00092503          	lw	a0,0(s2)
40000b98:	00490913          	addi	s2,s2,4
40000b9c:	18040463          	beq	s0,zero,40000d24 <ucx_vsprintf+0x3b8>
40000ba0:	00042783          	lw	a5,0(s0)
40000ba4:	001b8b93          	addi	s7,s7,1
40000ba8:	00a78023          	sb	a0,0(a5)
40000bac:	00042783          	lw	a5,0(s0)
40000bb0:	00178793          	addi	a5,a5,1
40000bb4:	00f42023          	sw	a5,0(s0)
40000bb8:	000bc783          	lbu	a5,0(s7)
40000bbc:	e00798e3          	bne	a5,zero,400009cc <ucx_vsprintf+0x60>
40000bc0:	e85ff06f          	jal	zero,40000a44 <ucx_vsprintf+0xd8>
40000bc4:	00092703          	lw	a4,0(s2)
40000bc8:	00a00593          	addi	a1,zero,10
40000bcc:	00490913          	addi	s2,s2,4
40000bd0:	f69ff06f          	jal	zero,40000b38 <ucx_vsprintf+0x1cc>
40000bd4:	00092b03          	lw	s6,0(s2)
40000bd8:	00490913          	addi	s2,s2,4
40000bdc:	120b0c63          	beq	s6,zero,40000d14 <ucx_vsprintf+0x3a8>
40000be0:	000b4503          	lbu	a0,0(s6)
40000be4:	02050863          	beq	a0,zero,40000c14 <ucx_vsprintf+0x2a8>
40000be8:	e40c08e3          	beq	s8,zero,40000a38 <ucx_vsprintf+0xcc>
40000bec:	08040663          	beq	s0,zero,40000c78 <ucx_vsprintf+0x30c>
40000bf0:	00042783          	lw	a5,0(s0)
40000bf4:	00a78023          	sb	a0,0(a5)
40000bf8:	00042783          	lw	a5,0(s0)
40000bfc:	00178793          	addi	a5,a5,1
40000c00:	00f42023          	sw	a5,0(s0)
40000c04:	001b4503          	lbu	a0,1(s6)
40000c08:	fffc0c13          	addi	s8,s8,-1
40000c0c:	001b0b13          	addi	s6,s6,1
40000c10:	fc051ce3          	bne	a0,zero,40000be8 <ucx_vsprintf+0x27c>
40000c14:	fffc0b13          	addi	s6,s8,-1
40000c18:	fff00c93          	addi	s9,zero,-1
40000c1c:	e1805ee3          	bge	zero,s8,40000a38 <ucx_vsprintf+0xcc>
40000c20:	02040263          	beq	s0,zero,40000c44 <ucx_vsprintf+0x2d8>
40000c24:	00042783          	lw	a5,0(s0)
40000c28:	01378023          	sb	s3,0(a5)
40000c2c:	00042783          	lw	a5,0(s0)
40000c30:	00178793          	addi	a5,a5,1
40000c34:	00f42023          	sw	a5,0(s0)
40000c38:	fffb0b13          	addi	s6,s6,-1
40000c3c:	df9b0ee3          	beq	s6,s9,40000a38 <ucx_vsprintf+0xcc>
40000c40:	fe0412e3          	bne	s0,zero,40000c24 <ucx_vsprintf+0x2b8>
40000c44:	00098513          	addi	a0,s3,0
40000c48:	fdcff0ef          	jal	ra,40000424 <_putchar>
40000c4c:	fedff06f          	jal	zero,40000c38 <ucx_vsprintf+0x2cc>
40000c50:	00092703          	lw	a4,0(s2)
40000c54:	001b8b93          	addi	s7,s7,1
40000c58:	00490913          	addi	s2,s2,4
40000c5c:	00a00593          	addi	a1,zero,10
40000c60:	e41ff06f          	jal	zero,40000aa0 <ucx_vsprintf+0x134>
40000c64:	00098513          	addi	a0,s3,0
40000c68:	00e12223          	sw	a4,4(sp)
40000c6c:	fb8ff0ef          	jal	ra,40000424 <_putchar>
40000c70:	00412703          	lw	a4,4(sp)
40000c74:	e69ff06f          	jal	zero,40000adc <ucx_vsprintf+0x170>
40000c78:	facff0ef          	jal	ra,40000424 <_putchar>
40000c7c:	f89ff06f          	jal	zero,40000c04 <ucx_vsprintf+0x298>
40000c80:	002bc703          	lbu	a4,2(s7)
40000c84:	00900613          	addi	a2,zero,9
40000c88:	002b8b93          	addi	s7,s7,2
40000c8c:	fd070793          	addi	a5,a4,-48
40000c90:	0ff7f793          	andi	a5,a5,255
40000c94:	03000993          	addi	s3,zero,48
40000c98:	fff00c13          	addi	s8,zero,-1
40000c9c:	d6f660e3          	bltu	a2,a5,400009fc <ucx_vsprintf+0x90>
40000ca0:	00000c13          	addi	s8,zero,0
40000ca4:	002c1793          	slli	a5,s8,0x2
40000ca8:	018787b3          	add	a5,a5,s8
40000cac:	001b8b93          	addi	s7,s7,1
40000cb0:	00179793          	slli	a5,a5,0x1
40000cb4:	00e787b3          	add	a5,a5,a4
40000cb8:	000bc703          	lbu	a4,0(s7)
40000cbc:	fd078c13          	addi	s8,a5,-48
40000cc0:	fd070793          	addi	a5,a4,-48
40000cc4:	0ff7f793          	andi	a5,a5,255
40000cc8:	fcf67ee3          	bgeu	a2,a5,40000ca4 <ucx_vsprintf+0x338>
40000ccc:	d31ff06f          	jal	zero,400009fc <ucx_vsprintf+0x90>
40000cd0:	00078513          	addi	a0,a5,0
40000cd4:	f50ff0ef          	jal	ra,40000424 <_putchar>
40000cd8:	001bc783          	lbu	a5,1(s7)
40000cdc:	001b8b93          	addi	s7,s7,1
40000ce0:	ce0796e3          	bne	a5,zero,400009cc <ucx_vsprintf+0x60>
40000ce4:	d61ff06f          	jal	zero,40000a44 <ucx_vsprintf+0xd8>
40000ce8:	40e00cb3          	sub	s9,zero,a4
40000cec:	04040663          	beq	s0,zero,40000d38 <ucx_vsprintf+0x3cc>
40000cf0:	00042783          	lw	a5,0(s0)
40000cf4:	02d00713          	addi	a4,zero,45
40000cf8:	00e78023          	sb	a4,0(a5)
40000cfc:	00042783          	lw	a5,0(s0)
40000d00:	00178793          	addi	a5,a5,1
40000d04:	00f42023          	sw	a5,0(s0)
40000d08:	fffc0c13          	addi	s8,s8,-1
40000d0c:	00a00b13          	addi	s6,zero,10
40000d10:	e35ff06f          	jal	zero,40000b44 <ucx_vsprintf+0x1d8>
40000d14:	400017b7          	lui	a5,0x40001
40000d18:	03c00513          	addi	a0,zero,60
40000d1c:	43478b13          	addi	s6,a5,1076 # 40001434 <_etext+0xf0>
40000d20:	ec9ff06f          	jal	zero,40000be8 <ucx_vsprintf+0x27c>
40000d24:	0ff57793          	andi	a5,a0,255
40000d28:	d00788e3          	beq	a5,zero,40000a38 <ucx_vsprintf+0xcc>
40000d2c:	0ff57513          	andi	a0,a0,255
40000d30:	ef4ff0ef          	jal	ra,40000424 <_putchar>
40000d34:	d05ff06f          	jal	zero,40000a38 <ucx_vsprintf+0xcc>
40000d38:	02d00513          	addi	a0,zero,45
40000d3c:	ee8ff0ef          	jal	ra,40000424 <_putchar>
40000d40:	fc9ff06f          	jal	zero,40000d08 <ucx_vsprintf+0x39c>

40000d44 <ucx_memset>:
40000d44:	0ff5f593          	andi	a1,a1,255
40000d48:	00c50733          	add	a4,a0,a2
40000d4c:	00050793          	addi	a5,a0,0
40000d50:	00060863          	beq	a2,zero,40000d60 <ucx_memset+0x1c>
40000d54:	00178793          	addi	a5,a5,1
40000d58:	feb78fa3          	sb	a1,-1(a5)
40000d5c:	fee79ce3          	bne	a5,a4,40000d54 <ucx_memset+0x10>
40000d60:	00008067          	jalr	zero,0(ra)

40000d64 <ucx_printf>:
40000d64:	fc010113          	addi	sp,sp,-64
40000d68:	02410313          	addi	t1,sp,36
40000d6c:	02b12223          	sw	a1,36(sp)
40000d70:	02c12423          	sw	a2,40(sp)
40000d74:	00050593          	addi	a1,a0,0
40000d78:	00030613          	addi	a2,t1,0
40000d7c:	00000513          	addi	a0,zero,0
40000d80:	00112e23          	sw	ra,28(sp)
40000d84:	02d12623          	sw	a3,44(sp)
40000d88:	02e12823          	sw	a4,48(sp)
40000d8c:	02f12a23          	sw	a5,52(sp)
40000d90:	03012c23          	sw	a6,56(sp)
40000d94:	03112e23          	sw	a7,60(sp)
40000d98:	00612623          	sw	t1,12(sp)
40000d9c:	bd1ff0ef          	jal	ra,4000096c <ucx_vsprintf>
40000da0:	01c12083          	lw	ra,28(sp)
40000da4:	04010113          	addi	sp,sp,64
40000da8:	00008067          	jalr	zero,0(ra)

40000dac <ucx_malloc>:
40000dac:	40001337          	lui	t1,0x40001
40000db0:	5e430313          	addi	t1,t1,1508 # 400015e4 <last_free>
40000db4:	00032683          	lw	a3,0(t1)
40000db8:	00350893          	addi	a7,a0,3
40000dbc:	ffc8f893          	andi	a7,a7,-4
40000dc0:	00068613          	addi	a2,a3,0
40000dc4:	ff800813          	addi	a6,zero,-8
40000dc8:	00888593          	addi	a1,a7,8
40000dcc:	0006a503          	lw	a0,0(a3)
40000dd0:	06050e63          	beq	a0,zero,40000e4c <ucx_malloc+0xa0>
40000dd4:	0046a783          	lw	a5,4(a3)
40000dd8:	0017f793          	andi	a5,a5,1
40000ddc:	00079663          	bne	a5,zero,40000de8 <ucx_malloc+0x3c>
40000de0:	0700006f          	jal	zero,40000e50 <ucx_malloc+0xa4>
40000de4:	00052503          	lw	a0,0(a0)
40000de8:	00452783          	lw	a5,4(a0)
40000dec:	0017f793          	andi	a5,a5,1
40000df0:	fe079ae3          	bne	a5,zero,40000de4 <ucx_malloc+0x38>
40000df4:	00050613          	addi	a2,a0,0
40000df8:	00050693          	addi	a3,a0,0
40000dfc:	00079e63          	bne	a5,zero,40000e18 <ucx_malloc+0x6c>
40000e00:	0006a703          	lw	a4,0(a3)
40000e04:	00070a63          	beq	a4,zero,40000e18 <ucx_malloc+0x6c>
40000e08:	00472783          	lw	a5,4(a4)
40000e0c:	00070693          	addi	a3,a4,0
40000e10:	0017f793          	andi	a5,a5,1
40000e14:	fe0786e3          	beq	a5,zero,40000e00 <ucx_malloc+0x54>
40000e18:	40c807b3          	sub	a5,a6,a2
40000e1c:	00f687b3          	add	a5,a3,a5
40000e20:	00f62223          	sw	a5,4(a2)
40000e24:	00d62023          	sw	a3,0(a2)
40000e28:	fab7e2e3          	bltu	a5,a1,40000dcc <ucx_malloc+0x20>
40000e2c:	00b605b3          	add	a1,a2,a1
40000e30:	00c32023          	sw	a2,0(t1)
40000e34:	0018e893          	ori	a7,a7,1
40000e38:	00b62023          	sw	a1,0(a2)
40000e3c:	01162223          	sw	a7,4(a2)
40000e40:	00d5a023          	sw	a3,0(a1)
40000e44:	0105a223          	sw	a6,4(a1)
40000e48:	00860513          	addi	a0,a2,8
40000e4c:	00008067          	jalr	zero,0(ra)
40000e50:	00068513          	addi	a0,a3,0
40000e54:	00050693          	addi	a3,a0,0
40000e58:	fa5ff06f          	jal	zero,40000dfc <ucx_malloc+0x50>

40000e5c <ucx_heap_init>:
40000e5c:	00358793          	addi	a5,a1,3
40000e60:	ffc7f793          	andi	a5,a5,-4
40000e64:	ff858593          	addi	a1,a1,-8
40000e68:	00b505b3          	add	a1,a0,a1
40000e6c:	ff078793          	addi	a5,a5,-16
40000e70:	00b52023          	sw	a1,0(a0)
40000e74:	00f52223          	sw	a5,4(a0)
40000e78:	0005a023          	sw	zero,0(a1)
40000e7c:	400017b7          	lui	a5,0x40001
40000e80:	5ea7a023          	sw	a0,1504(a5) # 400015e0 <first_free>
40000e84:	400017b7          	lui	a5,0x40001
40000e88:	0005a223          	sw	zero,4(a1)
40000e8c:	5ea7a223          	sw	a0,1508(a5) # 400015e4 <last_free>
40000e90:	00008067          	jalr	zero,0(ra)

40000e94 <krnl_delay_update>:
40000e94:	400017b7          	lui	a5,0x40001
40000e98:	5dc7a783          	lw	a5,1500(a5) # 400015dc <kcb_p>
40000e9c:	00300613          	addi	a2,zero,3
40000ea0:	00100513          	addi	a0,zero,1
40000ea4:	0047a683          	lw	a3,4(a5)
40000ea8:	00068793          	addi	a5,a3,0
40000eac:	00c0006f          	jal	zero,40000eb8 <krnl_delay_update+0x24>
40000eb0:	0007a783          	lw	a5,0(a5)
40000eb4:	02d78a63          	beq	a5,a3,40000ee8 <krnl_delay_update+0x54>
40000eb8:	0647c703          	lbu	a4,100(a5)
40000ebc:	fec71ae3          	bne	a4,a2,40000eb0 <krnl_delay_update+0x1c>
40000ec0:	0607d583          	lhu	a1,96(a5)
40000ec4:	fff58713          	addi	a4,a1,-1
40000ec8:	01071713          	slli	a4,a4,0x10
40000ecc:	01075713          	srli	a4,a4,0x10
40000ed0:	fe0580e3          	beq	a1,zero,40000eb0 <krnl_delay_update+0x1c>
40000ed4:	06e79023          	sh	a4,96(a5)
40000ed8:	fc071ce3          	bne	a4,zero,40000eb0 <krnl_delay_update+0x1c>
40000edc:	06a78223          	sb	a0,100(a5)
40000ee0:	0007a783          	lw	a5,0(a5)
40000ee4:	fcd79ae3          	bne	a5,a3,40000eb8 <krnl_delay_update+0x24>
40000ee8:	00008067          	jalr	zero,0(ra)

40000eec <krnl_guard_check>:
40000eec:	ff010113          	addi	sp,sp,-16
40000ef0:	00812423          	sw	s0,8(sp)
40000ef4:	40001437          	lui	s0,0x40001
40000ef8:	5dc40413          	addi	s0,s0,1500 # 400015dc <kcb_p>
40000efc:	00042703          	lw	a4,0(s0)
40000f00:	333337b7          	lui	a5,0x33333
40000f04:	00112623          	sw	ra,12(sp)
40000f08:	00072703          	lw	a4,0(a4)
40000f0c:	33378793          	addi	a5,a5,819 # 33333333 <_heap_size+0x3332892b>
40000f10:	05872503          	lw	a0,88(a4)
40000f14:	00052683          	lw	a3,0(a0)
40000f18:	00f69a63          	bne	a3,a5,40000f2c <krnl_guard_check+0x40>
40000f1c:	00c12083          	lw	ra,12(sp)
40000f20:	00812403          	lw	s0,8(sp)
40000f24:	01010113          	addi	sp,sp,16
40000f28:	00008067          	jalr	zero,0(ra)
40000f2c:	05c75583          	lhu	a1,92(a4)
40000f30:	b58ff0ef          	jal	ra,40000288 <ucx_hexdump>
40000f34:	00042783          	lw	a5,0(s0)
40000f38:	40001537          	lui	a0,0x40001
40000f3c:	4d450513          	addi	a0,a0,1236 # 400014d4 <_etext+0x190>
40000f40:	0007a783          	lw	a5,0(a5)
40000f44:	05c7d683          	lhu	a3,92(a5)
40000f48:	0587a603          	lw	a2,88(a5)
40000f4c:	05e7d583          	lhu	a1,94(a5)
40000f50:	e15ff0ef          	jal	ra,40000d64 <ucx_printf>
40000f54:	0000006f          	jal	zero,40000f54 <krnl_guard_check+0x68>

40000f58 <krnl_schedule>:
40000f58:	400017b7          	lui	a5,0x40001
40000f5c:	5dc7a583          	lw	a1,1500(a5) # 400015dc <kcb_p>
40000f60:	00200713          	addi	a4,zero,2
40000f64:	0005a783          	lw	a5,0(a1)
40000f68:	0647c683          	lbu	a3,100(a5)
40000f6c:	04e68e63          	beq	a3,a4,40000fc8 <krnl_schedule+0x70>
40000f70:	00100693          	addi	a3,zero,1
40000f74:	0007a783          	lw	a5,0(a5)
40000f78:	0647c703          	lbu	a4,100(a5)
40000f7c:	fed71ce3          	bne	a4,a3,40000f74 <krnl_schedule+0x1c>
40000f80:	0627d703          	lhu	a4,98(a5)
40000f84:	00f5a023          	sw	a5,0(a1)
40000f88:	fff70713          	addi	a4,a4,-1
40000f8c:	01071713          	slli	a4,a4,0x10
40000f90:	01075713          	srli	a4,a4,0x10
40000f94:	06e79123          	sh	a4,98(a5)
40000f98:	0ff77613          	andi	a2,a4,255
40000f9c:	fc061ce3          	bne	a2,zero,40000f74 <krnl_schedule+0x1c>
40000fa0:	00200693          	addi	a3,zero,2
40000fa4:	06d78223          	sb	a3,100(a5)
40000fa8:	0085a683          	lw	a3,8(a1)
40000fac:	00875613          	srli	a2,a4,0x8
40000fb0:	00c76733          	or	a4,a4,a2
40000fb4:	06e79123          	sh	a4,98(a5)
40000fb8:	00168713          	addi	a4,a3,1
40000fbc:	05e7d503          	lhu	a0,94(a5)
40000fc0:	00e5a423          	sw	a4,8(a1)
40000fc4:	00008067          	jalr	zero,0(ra)
40000fc8:	00100713          	addi	a4,zero,1
40000fcc:	06e78223          	sb	a4,100(a5)
40000fd0:	fa1ff06f          	jal	zero,40000f70 <krnl_schedule+0x18>

40000fd4 <krnl_dispatcher>:
40000fd4:	400017b7          	lui	a5,0x40001
40000fd8:	5dc7a783          	lw	a5,1500(a5) # 400015dc <kcb_p>
40000fdc:	ff010113          	addi	sp,sp,-16
40000fe0:	00112623          	sw	ra,12(sp)
40000fe4:	0007a503          	lw	a0,0(a5)
40000fe8:	00850513          	addi	a0,a0,8
40000fec:	a18ff0ef          	jal	ra,40000204 <setjmp>
40000ff0:	00050863          	beq	a0,zero,40001000 <krnl_dispatcher+0x2c>
40000ff4:	00c12083          	lw	ra,12(sp)
40000ff8:	01010113          	addi	sp,sp,16
40000ffc:	00008067          	jalr	zero,0(ra)
40001000:	e95ff0ef          	jal	ra,40000e94 <krnl_delay_update>
40001004:	ee9ff0ef          	jal	ra,40000eec <krnl_guard_check>
40001008:	f51ff0ef          	jal	ra,40000f58 <krnl_schedule>
4000100c:	d48ff0ef          	jal	ra,40000554 <_interrupt_tick>
40001010:	400017b7          	lui	a5,0x40001
40001014:	5dc7a783          	lw	a5,1500(a5) # 400015dc <kcb_p>
40001018:	00100593          	addi	a1,zero,1
4000101c:	0007a503          	lw	a0,0(a5)
40001020:	00850513          	addi	a0,a0,8
40001024:	a1cff0ef          	jal	ra,40000240 <longjmp>
40001028:	00c12083          	lw	ra,12(sp)
4000102c:	01010113          	addi	sp,sp,16
40001030:	00008067          	jalr	zero,0(ra)

40001034 <ucx_task_add>:
40001034:	fe010113          	addi	sp,sp,-32
40001038:	00812c23          	sw	s0,24(sp)
4000103c:	40001437          	lui	s0,0x40001
40001040:	5dc40413          	addi	s0,s0,1500 # 400015dc <kcb_p>
40001044:	00912a23          	sw	s1,20(sp)
40001048:	00042483          	lw	s1,0(s0)
4000104c:	01312623          	sw	s3,12(sp)
40001050:	00050993          	addi	s3,a0,0
40001054:	06c00513          	addi	a0,zero,108
40001058:	01212823          	sw	s2,16(sp)
4000105c:	01412423          	sw	s4,8(sp)
40001060:	0004a903          	lw	s2,0(s1)
40001064:	00112e23          	sw	ra,28(sp)
40001068:	00058a13          	addi	s4,a1,0
4000106c:	d41ff0ef          	jal	ra,40000dac <ucx_malloc>
40001070:	00042703          	lw	a4,0(s0)
40001074:	00a4a023          	sw	a0,0(s1)
40001078:	00472783          	lw	a5,4(a4)
4000107c:	06078663          	beq	a5,zero,400010e8 <ucx_task_add+0xb4>
40001080:	00072783          	lw	a5,0(a4)
40001084:	06078863          	beq	a5,zero,400010f4 <ucx_task_add+0xc0>
40001088:	00090463          	beq	s2,zero,40001090 <ucx_task_add+0x5c>
4000108c:	00f92023          	sw	a5,0(s2)
40001090:	00c75683          	lhu	a3,12(a4)
40001094:	00472603          	lw	a2,4(a4)
40001098:	0137a223          	sw	s3,4(a5)
4000109c:	06079023          	sh	zero,96(a5)
400010a0:	00c7a023          	sw	a2,0(a5)
400010a4:	05479e23          	sh	s4,92(a5)
400010a8:	00168613          	addi	a2,a3,1
400010ac:	00c71623          	sh	a2,12(a4)
400010b0:	00002737          	lui	a4,0x2
400010b4:	f1f70713          	addi	a4,a4,-225 # 1f1f <_stack_size-0x20e1>
400010b8:	04d79f23          	sh	a3,94(a5)
400010bc:	06e79123          	sh	a4,98(a5)
400010c0:	06079223          	sh	zero,100(a5)
400010c4:	00000513          	addi	a0,zero,0
400010c8:	01c12083          	lw	ra,28(sp)
400010cc:	01812403          	lw	s0,24(sp)
400010d0:	01412483          	lw	s1,20(sp)
400010d4:	01012903          	lw	s2,16(sp)
400010d8:	00c12983          	lw	s3,12(sp)
400010dc:	00812a03          	lw	s4,8(sp)
400010e0:	02010113          	addi	sp,sp,32
400010e4:	00008067          	jalr	zero,0(ra)
400010e8:	00072783          	lw	a5,0(a4)
400010ec:	00f72223          	sw	a5,4(a4)
400010f0:	f95ff06f          	jal	zero,40001084 <ucx_task_add+0x50>
400010f4:	fff00513          	addi	a0,zero,-1
400010f8:	fd1ff06f          	jal	zero,400010c8 <ucx_task_add+0x94>

400010fc <ucx_task_init>:
400010fc:	ff010113          	addi	sp,sp,-16
40001100:	00112623          	sw	ra,12(sp)
40001104:	00812423          	sw	s0,8(sp)
40001108:	00912223          	sw	s1,4(sp)
4000110c:	01010413          	addi	s0,sp,16
40001110:	400014b7          	lui	s1,0x40001
40001114:	5dc48493          	addi	s1,s1,1500 # 400015dc <kcb_p>
40001118:	0004a783          	lw	a5,0(s1)
4000111c:	06900593          	addi	a1,zero,105
40001120:	0007a783          	lw	a5,0(a5)
40001124:	05c7d603          	lhu	a2,92(a5)
40001128:	00f60793          	addi	a5,a2,15
4000112c:	0047d793          	srli	a5,a5,0x4
40001130:	00479793          	slli	a5,a5,0x4
40001134:	40f10133          	sub	sp,sp,a5
40001138:	00010513          	addi	a0,sp,0
4000113c:	c09ff0ef          	jal	ra,40000d44 <ucx_memset>
40001140:	00400613          	addi	a2,zero,4
40001144:	03300593          	addi	a1,zero,51
40001148:	00010513          	addi	a0,sp,0
4000114c:	bf9ff0ef          	jal	ra,40000d44 <ucx_memset>
40001150:	0004a783          	lw	a5,0(s1)
40001154:	00400613          	addi	a2,zero,4
40001158:	03300593          	addi	a1,zero,51
4000115c:	0007a783          	lw	a5,0(a5)
40001160:	05c7d503          	lhu	a0,92(a5)
40001164:	ffc50513          	addi	a0,a0,-4
40001168:	00a10533          	add	a0,sp,a0
4000116c:	bd9ff0ef          	jal	ra,40000d44 <ucx_memset>
40001170:	0004a783          	lw	a5,0(s1)
40001174:	40001537          	lui	a0,0x40001
40001178:	00010613          	addi	a2,sp,0
4000117c:	0007a783          	lw	a5,0(a5)
40001180:	50850513          	addi	a0,a0,1288 # 40001508 <_etext+0x1c4>
40001184:	05c7d683          	lhu	a3,92(a5)
40001188:	05e7d583          	lhu	a1,94(a5)
4000118c:	0427ac23          	sw	sp,88(a5)
40001190:	00d106b3          	add	a3,sp,a3
40001194:	bd1ff0ef          	jal	ra,40000d64 <ucx_printf>
40001198:	0004a783          	lw	a5,0(s1)
4000119c:	0007a503          	lw	a0,0(a5)
400011a0:	00850513          	addi	a0,a0,8
400011a4:	860ff0ef          	jal	ra,40000204 <setjmp>
400011a8:	02051c63          	bne	a0,zero,400011e0 <ucx_task_init+0xe4>
400011ac:	400017b7          	lui	a5,0x40001
400011b0:	5dc7a703          	lw	a4,1500(a5) # 400015dc <kcb_p>
400011b4:	00100793          	addi	a5,zero,1
400011b8:	00072683          	lw	a3,0(a4)
400011bc:	06f68223          	sb	a5,100(a3)
400011c0:	00472603          	lw	a2,4(a4)
400011c4:	0006a783          	lw	a5,0(a3)
400011c8:	02c78c63          	beq	a5,a2,40001200 <ucx_task_init+0x104>
400011cc:	0047a683          	lw	a3,4(a5)
400011d0:	00f72023          	sw	a5,0(a4)
400011d4:	00200713          	addi	a4,zero,2
400011d8:	06e78223          	sb	a4,100(a5)
400011dc:	000680e7          	jalr	ra,0(a3)
400011e0:	00100513          	addi	a0,zero,1
400011e4:	808ff0ef          	jal	ra,400001ec <_interrupt_set>
400011e8:	ff040113          	addi	sp,s0,-16
400011ec:	00c12083          	lw	ra,12(sp)
400011f0:	00812403          	lw	s0,8(sp)
400011f4:	00412483          	lw	s1,4(sp)
400011f8:	01010113          	addi	sp,sp,16
400011fc:	00008067          	jalr	zero,0(ra)
40001200:	00200793          	addi	a5,zero,2
40001204:	06f68223          	sb	a5,100(a3)
40001208:	fd9ff06f          	jal	zero,400011e0 <ucx_task_init+0xe4>

4000120c <ucx_task_priority>:
4000120c:	400017b7          	lui	a5,0x40001
40001210:	5dc7a703          	lw	a4,1500(a5) # 400015dc <kcb_p>
40001214:	000027b7          	lui	a5,0x2
40001218:	f1f78793          	addi	a5,a5,-225 # 1f1f <_stack_size-0x20e1>
4000121c:	00472683          	lw	a3,4(a4)
40001220:	02f58063          	beq	a1,a5,40001240 <ucx_task_priority+0x34>
40001224:	04b7f063          	bgeu	a5,a1,40001264 <ucx_task_priority+0x58>
40001228:	000047b7          	lui	a5,0x4
4000122c:	f3f78793          	addi	a5,a5,-193 # 3f3f <_stack_size-0xc1>
40001230:	00f58863          	beq	a1,a5,40001240 <ucx_task_priority+0x34>
40001234:	000087b7          	lui	a5,0x8
40001238:	f7f78793          	addi	a5,a5,-129 # 7f7f <_stack_size+0x3f7f>
4000123c:	04f59063          	bne	a1,a5,4000127c <ucx_task_priority+0x70>
40001240:	00068793          	addi	a5,a3,0
40001244:	00c0006f          	jal	zero,40001250 <ucx_task_priority+0x44>
40001248:	0007a783          	lw	a5,0(a5)
4000124c:	02d78863          	beq	a5,a3,4000127c <ucx_task_priority+0x70>
40001250:	05e7d703          	lhu	a4,94(a5)
40001254:	fea71ae3          	bne	a4,a0,40001248 <ucx_task_priority+0x3c>
40001258:	06b79123          	sh	a1,98(a5)
4000125c:	00000513          	addi	a0,zero,0
40001260:	00008067          	jalr	zero,0(ra)
40001264:	30300793          	addi	a5,zero,771
40001268:	fcf58ce3          	beq	a1,a5,40001240 <ucx_task_priority+0x34>
4000126c:	00001737          	lui	a4,0x1
40001270:	f0f70713          	addi	a4,a4,-241 # f0f <_stack_size-0x30f1>
40001274:	00068793          	addi	a5,a3,0
40001278:	fce58ce3          	beq	a1,a4,40001250 <ucx_task_priority+0x44>
4000127c:	fff00513          	addi	a0,zero,-1
40001280:	00008067          	jalr	zero,0(ra)

40001284 <ucx_task_id>:
40001284:	400017b7          	lui	a5,0x40001
40001288:	5dc7a783          	lw	a5,1500(a5) # 400015dc <kcb_p>
4000128c:	0007a783          	lw	a5,0(a5)
40001290:	05e7d503          	lhu	a0,94(a5)
40001294:	00008067          	jalr	zero,0(ra)

40001298 <main>:
40001298:	ff010113          	addi	sp,sp,-16
4000129c:	00812423          	sw	s0,8(sp)
400012a0:	40001437          	lui	s0,0x40001
400012a4:	00112623          	sw	ra,12(sp)
400012a8:	00912223          	sw	s1,4(sp)
400012ac:	5dc40413          	addi	s0,s0,1500 # 400015dc <kcb_p>
400012b0:	a50ff0ef          	jal	ra,40000500 <_hardware_init>
400012b4:	00042783          	lw	a5,0(s0)
400012b8:	400015b7          	lui	a1,0x40001
400012bc:	40001537          	lui	a0,0x40001
400012c0:	0007a023          	sw	zero,0(a5)
400012c4:	0007a223          	sw	zero,4(a5)
400012c8:	0007a423          	sw	zero,8(a5)
400012cc:	00079623          	sh	zero,12(a5)
400012d0:	52858593          	addi	a1,a1,1320 # 40001528 <_etext+0x1e4>
400012d4:	53c50513          	addi	a0,a0,1340 # 4000153c <_etext+0x1f8>
400012d8:	a8dff0ef          	jal	ra,40000d64 <ucx_printf>
400012dc:	0000b4b7          	lui	s1,0xb
400012e0:	40001537          	lui	a0,0x40001
400012e4:	a0848593          	addi	a1,s1,-1528 # aa08 <_heap_size>
400012e8:	5f850513          	addi	a0,a0,1528 # 400015f8 <_ebss>
400012ec:	b71ff0ef          	jal	ra,40000e5c <ucx_heap_init>
400012f0:	40001537          	lui	a0,0x40001
400012f4:	a0848593          	addi	a1,s1,-1528
400012f8:	55050513          	addi	a0,a0,1360 # 40001550 <_etext+0x20c>
400012fc:	a69ff0ef          	jal	ra,40000d64 <ucx_printf>
40001300:	b10ff0ef          	jal	ra,40000610 <app_main>
40001304:	00042703          	lw	a4,0(s0)
40001308:	00472783          	lw	a5,4(a4)
4000130c:	00f72023          	sw	a5,0(a4)
40001310:	02051263          	bne	a0,zero,40001334 <main+0x9c>
40001314:	0047a783          	lw	a5,4(a5)
40001318:	000780e7          	jalr	ra,0(a5)
4000131c:	00c12083          	lw	ra,12(sp)
40001320:	00812403          	lw	s0,8(sp)
40001324:	00412483          	lw	s1,4(sp)
40001328:	00000513          	addi	a0,zero,0
4000132c:	01010113          	addi	sp,sp,16
40001330:	00008067          	jalr	zero,0(ra)
40001334:	a0cff0ef          	jal	ra,40000540 <_timer_enable>
40001338:	00042783          	lw	a5,0(s0)
4000133c:	0007a783          	lw	a5,0(a5)
40001340:	fd5ff06f          	jal	zero,40001314 <main+0x7c>
